; Function Attrs: uwtable
define void @_ZThn1600_N8proxygen11HTTPSession16onEgressBufferedEv(ptr noundef %this) unnamed_addr #14 align 2 {
entry:
  %infoCallback_.i = getelementptr inbounds i8, ptr %this, i64 -1384
  %0 = load ptr, ptr %infoCallback_.i, align 8
  %tobool.not.i = icmp eq ptr %0, null
  br i1 %tobool.not.i, label %_ZN8proxygen11HTTPSession16onEgressBufferedEv.exit, label %if.then.i

if.then.i:                                        ; preds = %entry
  %1 = getelementptr inbounds i8, ptr %this, i64 -1600
  %vtable.i = load ptr, ptr %0, align 8
  %vfn.i = getelementptr inbounds i8, ptr %vtable.i, i64 208
  %2 = load ptr, ptr %vfn.i, align 8
  tail call void %2(ptr noundef nonnull align 8 dereferenceable(8) %0, ptr noundef nonnull align 8 dereferenceable(1582) %1)
  br label %_ZN8proxygen11HTTPSession16onEgressBufferedEv.exit

_ZN8proxygen11HTTPSession16onEgressBufferedEv.exit: ; preds = %entry, %if.then.i
  ret void
}